; Function Attrs: nounwind uwtable
define internal fastcc void @PrintFinalStats(ptr noundef %0, i32 noundef %1, i32 noundef %2, i32 noundef %3) unnamed_addr #0 {
  %5 = alloca i64, align 8
  %6 = alloca i64, align 8
  %7 = alloca i64, align 8
  %8 = alloca i64, align 8
  %9 = alloca i64, align 8
  %10 = alloca i64, align 8
  %11 = alloca i64, align 8
  %12 = alloca i64, align 8
  %13 = alloca i64, align 8
  %14 = alloca i64, align 8
  %15 = alloca i64, align 8
  %16 = alloca i64, align 8
  call void @llvm.lifetime.start.p0(i64 8, ptr nonnull %5) #11
  call void @llvm.lifetime.start.p0(i64 8, ptr nonnull %6) #11
  call void @llvm.lifetime.start.p0(i64 8, ptr nonnull %7) #11
  call void @llvm.lifetime.start.p0(i64 8, ptr nonnull %8) #11
  call void @llvm.lifetime.start.p0(i64 8, ptr nonnull %9) #11
  call void @llvm.lifetime.start.p0(i64 8, ptr nonnull %10) #11
  call void @llvm.lifetime.start.p0(i64 8, ptr nonnull %11) #11
  call void @llvm.lifetime.start.p0(i64 8, ptr nonnull %12) #11
  call void @llvm.lifetime.start.p0(i64 8, ptr nonnull %13) #11
  call void @llvm.lifetime.start.p0(i64 8, ptr nonnull %14) #11
  call void @llvm.lifetime.start.p0(i64 8, ptr nonnull %15) #11
  call void @llvm.lifetime.start.p0(i64 8, ptr nonnull %16) #11
  %17 = call i32 @CVodeGetNumSteps(ptr noundef %0, ptr noundef nonnull %5) #11
  %18 = icmp slt i32 %17, 0
  br i1 %18, label %19, label %check_retval.exit

19:                                               ; preds = %4
  %20 = load ptr, ptr @stderr, align 8, !tbaa !9
  %21 = call i32 (ptr, ptr, ...) @fprintf(ptr noundef %20, ptr noundef nonnull @.str.68, ptr noundef nonnull @.str.39, i32 noundef %17) #14
  br label %check_retval.exit

check_retval.exit:                                ; preds = %4, %19
  %22 = call i32 @CVodeGetNumRhsEvals(ptr noundef %0, ptr noundef nonnull %6) #11
  %23 = icmp slt i32 %22, 0
  br i1 %23, label %24, label %check_retval.exit19

24:                                               ; preds = %check_retval.exit
  %25 = load ptr, ptr @stderr, align 8, !tbaa !9
  %26 = call i32 (ptr, ptr, ...) @fprintf(ptr noundef %25, ptr noundef nonnull @.str.68, ptr noundef nonnull @.str.47, i32 noundef %22) #14
  br label %check_retval.exit19

check_retval.exit19:                              ; preds = %check_retval.exit, %24
  %27 = call i32 @CVodeGetNumLinSolvSetups(ptr noundef %0, ptr noundef nonnull %7) #11
  %28 = icmp slt i32 %27, 0
  br i1 %28, label %29, label %check_retval.exit21

29:                                               ; preds = %check_retval.exit19
  %30 = load ptr, ptr @stderr, align 8, !tbaa !9
  %31 = call i32 (ptr, ptr, ...) @fprintf(ptr noundef %30, ptr noundef nonnull @.str.68, ptr noundef nonnull @.str.48, i32 noundef %27) #14
  br label %check_retval.exit21

check_retval.exit21:                              ; preds = %check_retval.exit19, %29
  %32 = call i32 @CVodeGetNumErrTestFails(ptr noundef %0, ptr noundef nonnull %10) #11
  %33 = icmp slt i32 %32, 0
  br i1 %33, label %34, label %check_retval.exit23

34:                                               ; preds = %check_retval.exit21
  %35 = load ptr, ptr @stderr, align 8, !tbaa !9
  %36 = call i32 (ptr, ptr, ...) @fprintf(ptr noundef %35, ptr noundef nonnull @.str.68, ptr noundef nonnull @.str.49, i32 noundef %32) #14
  br label %check_retval.exit23

check_retval.exit23:                              ; preds = %check_retval.exit21, %34
  %37 = call i32 @CVodeGetNumNonlinSolvIters(ptr noundef %0, ptr noundef nonnull %8) #11
  %38 = icmp slt i32 %37, 0
  br i1 %38, label %39, label %check_retval.exit25

39:                                               ; preds = %check_retval.exit23
  %40 = load ptr, ptr @stderr, align 8, !tbaa !9
  %41 = call i32 (ptr, ptr, ...) @fprintf(ptr noundef %40, ptr noundef nonnull @.str.68, ptr noundef nonnull @.str.50, i32 noundef %37) #14
  br label %check_retval.exit25

check_retval.exit25:                              ; preds = %check_retval.exit23, %39
  %42 = call i32 @CVodeGetNumNonlinSolvConvFails(ptr noundef %0, ptr noundef nonnull %9) #11
  %43 = icmp slt i32 %42, 0
  br i1 %43, label %44, label %check_retval.exit27

44:                                               ; preds = %check_retval.exit25
  %45 = load ptr, ptr @stderr, align 8, !tbaa !9
  %46 = call i32 (ptr, ptr, ...) @fprintf(ptr noundef %45, ptr noundef nonnull @.str.68, ptr noundef nonnull @.str.51, i32 noundef %42) #14
  br label %check_retval.exit27

check_retval.exit27:                              ; preds = %check_retval.exit25, %44
  %.not = icmp eq i32 %1, 0
  br i1 %.not, label %check_retval.exit39, label %47

47:                                               ; preds = %check_retval.exit27
  %48 = call i32 @CVodeGetSensNumRhsEvals(ptr noundef %0, ptr noundef nonnull %11) #11
  %49 = icmp slt i32 %48, 0
  br i1 %49, label %50, label %check_retval.exit29

50:                                               ; preds = %47
  %51 = load ptr, ptr @stderr, align 8, !tbaa !9
  %52 = call i32 (ptr, ptr, ...) @fprintf(ptr noundef %51, ptr noundef nonnull @.str.68, ptr noundef nonnull @.str.52, i32 noundef %48) #14
  br label %check_retval.exit29

check_retval.exit29:                              ; preds = %47, %50
  %53 = call i32 @CVodeGetNumRhsEvalsSens(ptr noundef %0, ptr noundef nonnull %12) #11
  %54 = icmp slt i32 %53, 0
  br i1 %54, label %55, label %check_retval.exit31

55:                                               ; preds = %check_retval.exit29
  %56 = load ptr, ptr @stderr, align 8, !tbaa !9
  %57 = call i32 (ptr, ptr, ...) @fprintf(ptr noundef %56, ptr noundef nonnull @.str.68, ptr noundef nonnull @.str.53, i32 noundef %53) #14
  br label %check_retval.exit31

check_retval.exit31:                              ; preds = %check_retval.exit29, %55
  %58 = call i32 @CVodeGetSensNumLinSolvSetups(ptr noundef %0, ptr noundef nonnull %13) #11
  %59 = icmp slt i32 %58, 0
  br i1 %59, label %60, label %check_retval.exit33

60:                                               ; preds = %check_retval.exit31
  %61 = load ptr, ptr @stderr, align 8, !tbaa !9
  %62 = call i32 (ptr, ptr, ...) @fprintf(ptr noundef %61, ptr noundef nonnull @.str.68, ptr noundef nonnull @.str.54, i32 noundef %58) #14
  br label %check_retval.exit33

check_retval.exit33:                              ; preds = %check_retval.exit31, %60
  %.not17 = icmp eq i32 %2, 0
  br i1 %.not17, label %69, label %63

63:                                               ; preds = %check_retval.exit33
  %64 = call i32 @CVodeGetSensNumErrTestFails(ptr noundef %0, ptr noundef nonnull %16) #11
  %65 = icmp slt i32 %64, 0
  br i1 %65, label %66, label %check_retval.exit35

66:                                               ; preds = %63
  %67 = load ptr, ptr @stderr, align 8, !tbaa !9
  %68 = call i32 (ptr, ptr, ...) @fprintf(ptr noundef %67, ptr noundef nonnull @.str.68, ptr noundef nonnull @.str.55, i32 noundef %64) #14
  br label %check_retval.exit35

69:                                               ; preds = %check_retval.exit33
  store i64 0, ptr %16, align 8, !tbaa !24
  br label %check_retval.exit35

check_retval.exit35:                              ; preds = %66, %63, %69
  %70 = and i32 %3, -2
  %or.cond = icmp eq i32 %70, 2
  br i1 %or.cond, label %71, label %82

71:                                               ; preds = %check_retval.exit35
  %72 = call i32 @CVodeGetSensNumNonlinSolvIters(ptr noundef %0, ptr noundef nonnull %14) #11
  %73 = icmp slt i32 %72, 0
  br i1 %73, label %74, label %check_retval.exit37

74:                                               ; preds = %71
  %75 = load ptr, ptr @stderr, align 8, !tbaa !9
  %76 = call i32 (ptr, ptr, ...) @fprintf(ptr noundef %75, ptr noundef nonnull @.str.68, ptr noundef nonnull @.str.56, i32 noundef %72) #14
  br label %check_retval.exit37

check_retval.exit37:                              ; preds = %71, %74
  %77 = call i32 @CVodeGetSensNumNonlinSolvConvFails(ptr noundef %0, ptr noundef nonnull %15) #11
  %78 = icmp slt i32 %77, 0
  br i1 %78, label %79, label %check_retval.exit39

79:                                               ; preds = %check_retval.exit37
  %80 = load ptr, ptr @stderr, align 8, !tbaa !9
  %81 = call i32 (ptr, ptr, ...) @fprintf(ptr noundef %80, ptr noundef nonnull @.str.68, ptr noundef nonnull @.str.57, i32 noundef %77) #14
  br label %check_retval.exit39

82:                                               ; preds = %check_retval.exit35
  store i64 0, ptr %14, align 8, !tbaa !24
  store i64 0, ptr %15, align 8, !tbaa !24
  br label %check_retval.exit39

check_retval.exit39:                              ; preds = %79, %check_retval.exit37, %82, %check_retval.exit27
  %puts = call i32 @puts(ptr nonnull dereferenceable(1) @str.5)
  %83 = load i64, ptr %5, align 8, !tbaa !24
  %84 = call i32 (ptr, ...) @printf(ptr noundef nonnull dereferenceable(1) @.str.59, i64 noundef %83)
  %85 = load i64, ptr %6, align 8, !tbaa !24
  %86 = call i32 (ptr, ...) @printf(ptr noundef nonnull dereferenceable(1) @.str.60, i64 noundef %85)
  %87 = load i64, ptr %10, align 8, !tbaa !24
  %88 = load i64, ptr %7, align 8, !tbaa !24
  %89 = call i32 (ptr, ...) @printf(ptr noundef nonnull dereferenceable(1) @.str.61, i64 noundef %87, i64 noundef %88)
  %90 = load i64, ptr %8, align 8, !tbaa !24
  %91 = load i64, ptr %9, align 8, !tbaa !24
  %92 = call i32 (ptr, ...) @printf(ptr noundef nonnull dereferenceable(1) @.str.62, i64 noundef %90, i64 noundef %91)
  br i1 %.not, label %103, label %93

93:                                               ; preds = %check_retval.exit39
  %putchar = call i32 @putchar(i32 10)
  %94 = load i64, ptr %11, align 8, !tbaa !24
  %95 = load i64, ptr %12, align 8, !tbaa !24
  %96 = call i32 (ptr, ...) @printf(ptr noundef nonnull dereferenceable(1) @.str.64, i64 noundef %94, i64 noundef %95)
  %97 = load i64, ptr %16, align 8, !tbaa !24
  %98 = load i64, ptr %13, align 8, !tbaa !24
  %99 = call i32 (ptr, ...) @printf(ptr noundef nonnull dereferenceable(1) @.str.65, i64 noundef %97, i64 noundef %98)
  %100 = load i64, ptr %14, align 8, !tbaa !24
  %101 = load i64, ptr %15, align 8, !tbaa !24
  %102 = call i32 (ptr, ...) @printf(ptr noundef nonnull dereferenceable(1) @.str.66, i64 noundef %100, i64 noundef %101)
  br label %103

103:                                              ; preds = %93, %check_retval.exit39
  call void @llvm.lifetime.end.p0(i64 8, ptr nonnull %16) #11
  call void @llvm.lifetime.end.p0(i64 8, ptr nonnull %15) #11
  call void @llvm.lifetime.end.p0(i64 8, ptr nonnull %14) #11
  call void @llvm.lifetime.end.p0(i64 8, ptr nonnull %13) #11
  call void @llvm.lifetime.end.p0(i64 8, ptr nonnull %12) #11
  call void @llvm.lifetime.end.p0(i64 8, ptr nonnull %11) #11
  call void @llvm.lifetime.end.p0(i64 8, ptr nonnull %10) #11
  call void @llvm.lifetime.end.p0(i64 8, ptr nonnull %9) #11
  call void @llvm.lifetime.end.p0(i64 8, ptr nonnull %8) #11
  call void @llvm.lifetime.end.p0(i64 8, ptr nonnull %7) #11
  call void @llvm.lifetime.end.p0(i64 8, ptr nonnull %6) #11
  call void @llvm.lifetime.end.p0(i64 8, ptr nonnull %5) #11
  ret void
}